target datalayout = "e-m:e-p270:32:32-p271:32:32-p272:64:64-i64:64-i128:128-f80:128-n8:16:32:64-S128"
target triple = "x86_64-pc-linux-gnu"

%class.anon.793 = type { i8 }
%"class.gmx::CheckpointData" = type { ptr }
%"class.std::optional.795" = type { %"struct.std::_Optional_base.796" }
%"struct.std::_Optional_base.796" = type { %"struct.std::_Optional_payload.798" }
%"struct.std::_Optional_payload.798" = type { %"struct.std::_Optional_payload_base.base.800", [7 x i8] }
%"struct.std::_Optional_payload_base.base.800" = type <{ %"union.std::_Optional_payload_base<gmx::CheckpointData<CheckpointDataOperation::Read>>::_Storage", i8 }>
%"union.std::_Optional_payload_base<gmx::CheckpointData<CheckpointDataOperation::Read>>::_Storage" = type { %"class.gmx::CheckpointData" }
%struct.CheckpointHeaderContents = type <{ i32, [1024 x i8], [1024 x i8], [1024 x i8], [1024 x i8], i32, [1024 x i8], [1024 x i8], i32, i32, i64, double, i32, [3 x i32], i32, i32, i32, i32, i32, i32, i32, i32, i32, i32, i32, i32, i32, i32, i8, [7 x i8] }>
%struct.t_trxframe = type { i32, i8, i32, i8, i64, i8, float, i8, i8, float, i32, i8, ptr, i8, float, i8, ptr, i8, ptr, i8, ptr, i8, [3 x [3 x float]], i8, i32, i8, ptr }
%"struct.std::_Optional_payload_base.799" = type <{ %"union.std::_Optional_payload_base<gmx::CheckpointData<CheckpointDataOperation::Read>>::_Storage", i8, [7 x i8] }>

@.str.14 = private unnamed_addr constant [143 x i8] c"generated/home/dtcxzyw/WorkSpace/Projects/compilers/llvm-opt-benchmark/bench/gromacs/gromacs/src/gromacs/modularsimulator/modularsimulator.cpp\00", align 1
@.str.55 = private unnamed_addr constant [39 x i8] c"conversion of checkpoint to trajectory\00", align 1
@.str.56 = private unnamed_addr constant [54 x i8] c"checkpointHeaderContents.isModularSimulatorCheckpoint\00", align 1
@.str.57 = private unnamed_addr constant [99 x i8] c"ModularSimulator::readCheckpointToTrxFrame can only read checkpoints written by modular simulator.\00", align 1

; Function Attrs: mustprogress nounwind uwtable
define linkonce_odr void @_ZNSt22_Optional_payload_baseIN3gmx14CheckpointDataILNS0_23CheckpointDataOperationE0EEEE8_StorageIS3_Lb1EEC2Ev(ptr noundef nonnull align 8 dereferenceable(8) %0) unnamed_addr #1 comdat align 2 {
  %2 = alloca ptr, align 8
  store ptr %0, ptr %2, align 8
  ret void
}

; Function Attrs: mustprogress nounwind uwtable
define linkonce_odr void @_ZNSt22_Optional_payload_baseIN3gmx14CheckpointDataILNS0_23CheckpointDataOperationE0EEEE8_StorageIS3_Lb1EEC2IJS3_EEESt10in_place_tDpOT_(ptr noundef nonnull align 8 dereferenceable(8) %0, ptr noundef nonnull align 8 dereferenceable(8) %1) unnamed_addr #1 comdat align 2 {
  %3 = alloca ptr, align 8
  %4 = alloca ptr, align 8
  store ptr %0, ptr %3, align 8
  store ptr %1, ptr %4, align 8
  %5 = load ptr, ptr %3, align 8
  %6 = load ptr, ptr %4, align 8
  call void @llvm.memcpy.p0.p0.i64(ptr align 8 %5, ptr align 8 %6, i64 8, i1 false)
  ret void
}

; Function Attrs: mustprogress nounwind uwtable
define linkonce_odr void @_ZNSt22_Optional_payload_baseIN3gmx14CheckpointDataILNS0_23CheckpointDataOperationE0EEEEC2Ev(ptr noundef nonnull align 8 dereferenceable(9) %0) unnamed_addr #1 comdat align 2 {
  %2 = alloca ptr, align 8
  store ptr %0, ptr %2, align 8
  %3 = load ptr, ptr %2, align 8
  %4 = getelementptr inbounds %"struct.std::_Optional_payload_base.799", ptr %3, i32 0, i32 0
  call void @_ZNSt22_Optional_payload_baseIN3gmx14CheckpointDataILNS0_23CheckpointDataOperationE0EEEE8_StorageIS3_Lb1EEC2Ev(ptr noundef nonnull align 8 dereferenceable(8) %4) #12
  %5 = getelementptr inbounds %"struct.std::_Optional_payload_base.799", ptr %3, i32 0, i32 1
  store i8 0, ptr %5, align 8
  ret void
}

; Function Attrs: mustprogress uwtable
define linkonce_odr void @_ZNSt22_Optional_payload_baseIN3gmx14CheckpointDataILNS0_23CheckpointDataOperationE0EEEEC2IJS3_EEESt10in_place_tDpOT_(ptr noundef nonnull align 8 dereferenceable(9) %0, ptr noundef nonnull align 8 dereferenceable(8) %1) unnamed_addr #0 comdat align 2 {
  %3 = alloca ptr, align 8
  %4 = alloca ptr, align 8
  store ptr %0, ptr %3, align 8
  store ptr %1, ptr %4, align 8
  %5 = load ptr, ptr %3, align 8
  %6 = getelementptr inbounds %"struct.std::_Optional_payload_base.799", ptr %5, i32 0, i32 0
  %7 = load ptr, ptr %4, align 8
  call void @_ZNSt22_Optional_payload_baseIN3gmx14CheckpointDataILNS0_23CheckpointDataOperationE0EEEE8_StorageIS3_Lb1EEC2IJS3_EEESt10in_place_tDpOT_(ptr noundef nonnull align 8 dereferenceable(8) %6, ptr noundef nonnull align 8 dereferenceable(8) %7)
  %8 = getelementptr inbounds %"struct.std::_Optional_payload_base.799", ptr %5, i32 0, i32 1
  store i8 1, ptr %8, align 8
  ret void
}

; Function Attrs: mustprogress nounwind uwtable
define linkonce_odr void @_ZNSt17_Optional_payloadIN3gmx14CheckpointDataILNS0_23CheckpointDataOperationE0EEELb1ELb1ELb1EEC2Ev(ptr noundef nonnull align 8 dereferenceable(9) %0) unnamed_addr #1 comdat align 2 {
  %2 = alloca ptr, align 8
  store ptr %0, ptr %2, align 8
  %3 = load ptr, ptr %2, align 8
  call void @_ZNSt22_Optional_payload_baseIN3gmx14CheckpointDataILNS0_23CheckpointDataOperationE0EEEEC2Ev(ptr noundef nonnull align 8 dereferenceable(9) %3) #12
  ret void
}

; Function Attrs: mustprogress uwtable
define linkonce_odr void @_ZNSt17_Optional_payloadIN3gmx14CheckpointDataILNS0_23CheckpointDataOperationE0EEELb1ELb1ELb1EECI2St22_Optional_payload_baseIS3_EIJS3_EEESt10in_place_tDpOT_(ptr noundef nonnull align 8 dereferenceable(9) %0, ptr noundef nonnull align 8 dereferenceable(8) %1) unnamed_addr #0 comdat align 2 {
  %3 = alloca ptr, align 8
  %4 = alloca ptr, align 8
  store ptr %0, ptr %3, align 8
  store ptr %1, ptr %4, align 8
  %5 = load ptr, ptr %3, align 8
  %6 = load ptr, ptr %4, align 8
  call void @_ZNSt22_Optional_payload_baseIN3gmx14CheckpointDataILNS0_23CheckpointDataOperationE0EEEEC2IJS3_EEESt10in_place_tDpOT_(ptr noundef nonnull align 8 dereferenceable(9) %5, ptr noundef nonnull align 8 dereferenceable(8) %6)
  ret void
}

; Function Attrs: mustprogress nounwind uwtable
define linkonce_odr void @_ZNSt14_Optional_baseIN3gmx14CheckpointDataILNS0_23CheckpointDataOperationE0EEELb1ELb1EEC2Ev(ptr noundef nonnull align 8 dereferenceable(16) %0) unnamed_addr #1 comdat align 2 {
  %2 = alloca ptr, align 8
  store ptr %0, ptr %2, align 8
  %3 = load ptr, ptr %2, align 8
  %4 = getelementptr inbounds %"struct.std::_Optional_base.796", ptr %3, i32 0, i32 0
  call void @_ZNSt17_Optional_payloadIN3gmx14CheckpointDataILNS0_23CheckpointDataOperationE0EEELb1ELb1ELb1EEC2Ev(ptr noundef nonnull align 8 dereferenceable(9) %4) #12
  ret void
}

; Function Attrs: noreturn nounwind uwtable
define linkonce_odr hidden void @__clang_call_terminate(ptr noundef %0) #6 comdat {
  %2 = call ptr @__cxa_begin_catch(ptr %0) #12
  call void @_ZSt9terminatev() #14
  unreachable
}

; Function Attrs: mustprogress uwtable
define linkonce_odr void @_ZNSt14_Optional_baseIN3gmx14CheckpointDataILNS0_23CheckpointDataOperationE0EEELb1ELb1EEC2IJS3_ETnNSt9enable_ifIX18is_constructible_vIS3_DpT_EEbE4typeELb0EEESt10in_place_tDpOS7_(ptr noundef nonnull align 8 dereferenceable(16) %0, ptr noundef nonnull align 8 dereferenceable(8) %1) unnamed_addr #0 comdat align 2 {
  %3 = alloca ptr, align 8
  %4 = alloca ptr, align 8
  store ptr %0, ptr %3, align 8
  store ptr %1, ptr %4, align 8
  %5 = load ptr, ptr %3, align 8
  %6 = getelementptr inbounds %"struct.std::_Optional_base.796", ptr %5, i32 0, i32 0
  %7 = load ptr, ptr %4, align 8
  call void @_ZNSt17_Optional_payloadIN3gmx14CheckpointDataILNS0_23CheckpointDataOperationE0EEELb1ELb1ELb1EECI2St22_Optional_payload_baseIS3_EIJS3_EEESt10in_place_tDpOT_(ptr noundef nonnull align 8 dereferenceable(9) %6, ptr noundef nonnull align 8 dereferenceable(8) %7)
  ret void
}

; Function Attrs: mustprogress nounwind uwtable
define linkonce_odr void @_ZNSt8optionalIN3gmx14CheckpointDataILNS0_23CheckpointDataOperationE0EEEEC2ESt9nullopt_t(ptr noundef nonnull align 8 dereferenceable(16) %0) unnamed_addr #1 comdat align 2 {
  %2 = alloca ptr, align 8
  store ptr %0, ptr %2, align 8
  %3 = load ptr, ptr %2, align 8
  call void @_ZNSt14_Optional_baseIN3gmx14CheckpointDataILNS0_23CheckpointDataOperationE0EEELb1ELb1EEC2Ev(ptr noundef nonnull align 8 dereferenceable(16) %3) #12
  ret void
}

; Function Attrs: mustprogress nounwind uwtable
define linkonce_odr void @_ZNSt8optionalIN3gmx14CheckpointDataILNS0_23CheckpointDataOperationE0EEEEC2IS3_TnNSt9enable_ifIX7__and_vISt6__not_ISt7is_sameIS4_NSt9remove_cvINSt16remove_referenceIT_E4typeEE4typeEEES7_IS8_ISt10in_place_tSF_EESt16is_constructibleIS3_JSB_EESt14is_convertibleISB_S3_EEEbE4typeELb1EEEOSB_(ptr noundef nonnull align 8 dereferenceable(16) %0, ptr noundef nonnull align 8 dereferenceable(8) %1) unnamed_addr #1 comdat align 2 personality ptr @__gxx_personality_v0 {
  %3 = alloca ptr, align 8
  %4 = alloca ptr, align 8
  store ptr %0, ptr %3, align 8
  store ptr %1, ptr %4, align 8
  %5 = load ptr, ptr %3, align 8
  %6 = load ptr, ptr %4, align 8
  invoke void @_ZNSt14_Optional_baseIN3gmx14CheckpointDataILNS0_23CheckpointDataOperationE0EEELb1ELb1EEC2IJS3_ETnNSt9enable_ifIX18is_constructible_vIS3_DpT_EEbE4typeELb0EEESt10in_place_tDpOS7_(ptr noundef nonnull align 8 dereferenceable(16) %5, ptr noundef nonnull align 8 dereferenceable(8) %6)
          to label %7 unwind label %8

7:                                                ; preds = %2
  ret void

8:                                                ; preds = %2
  %9 = landingpad { ptr, i32 }
          catch ptr null
  %10 = extractvalue { ptr, i32 } %9, 0
  call void @__clang_call_terminate(ptr %10) #14
  unreachable
}

; Function Attrs: mustprogress uwtable
define internal void @"_ZZN3gmx16ModularSimulator24readCheckpointToTrxFrameEP10t_trxframePNS_24ReadCheckpointDataHolderERK24CheckpointHeaderContentsENK3$_0clEv"(ptr noundef nonnull align 1 dereferenceable(1) %0) #0 align 2 {
  %2 = alloca ptr, align 8
  store ptr %0, ptr %2, align 8
  call void @_ZN3gmx8internal13assertHandlerEPKcS2_S2_S2_i(ptr noundef @.str.56, ptr noundef @.str.57, ptr noundef @"__PRETTY_FUNCTION__._ZZN3gmx16ModularSimulator24readCheckpointToTrxFrameEP10t_trxframePNS_24ReadCheckpointDataHolderERK24CheckpointHeaderContentsENK3$_0clEv", ptr noundef @.str.14, i32 noundef 552) #15
  unreachable
}

; Function Attrs: mustprogress uwtable
define void @_ZN3gmx16ModularSimulator24readCheckpointToTrxFrameEP10t_trxframePNS_24ReadCheckpointDataHolderERK24CheckpointHeaderContents(ptr noundef %0, ptr noundef %1, ptr noundef nonnull align 8 dereferenceable(6249) %2) #0 align 2 {
  %4 = alloca ptr, align 8
  %5 = alloca ptr, align 8
  %6 = alloca ptr, align 8
  %7 = alloca %class.anon.793, align 1
  %8 = alloca %"class.gmx::CheckpointData", align 8
  %9 = alloca %"class.std::optional.795", align 8
  %10 = alloca %"class.gmx::CheckpointData", align 8
  %11 = alloca %"class.std::optional.795", align 8
  store ptr %0, ptr %4, align 8
  store ptr %1, ptr %5, align 8
  store ptr %2, ptr %6, align 8
  %12 = load ptr, ptr %6, align 8
  %13 = getelementptr inbounds %struct.CheckpointHeaderContents, ptr %12, i32 0, i32 28
  %14 = load i8, ptr %13, align 8
  %15 = trunc i8 %14 to i1
  br i1 %15, label %16, label %17

16:                                               ; preds = %3
  br label %18

17:                                               ; preds = %3
  call void @"_ZZN3gmx16ModularSimulator24readCheckpointToTrxFrameEP10t_trxframePNS_24ReadCheckpointDataHolderERK24CheckpointHeaderContentsENK3$_0clEv"(ptr noundef nonnull align 1 dereferenceable(1) %7)
  br label %18

18:                                               ; preds = %17, %16
  %19 = load ptr, ptr %4, align 8
  %20 = getelementptr inbounds %struct.t_trxframe, ptr %19, i32 0, i32 3
  store i8 1, ptr %20, align 4
  %21 = load ptr, ptr %6, align 8
  %22 = getelementptr inbounds %struct.CheckpointHeaderContents, ptr %21, i32 0, i32 10
  %23 = load i64, ptr %22, align 8
  %24 = call noundef i32 @_Z12int64_to_intlPKc(i64 noundef %23, ptr noundef @.str.55)
  %25 = sext i32 %24 to i64
  %26 = load ptr, ptr %4, align 8
  %27 = getelementptr inbounds %struct.t_trxframe, ptr %26, i32 0, i32 4
  store i64 %25, ptr %27, align 8
  %28 = load ptr, ptr %4, align 8
  %29 = getelementptr inbounds %struct.t_trxframe, ptr %28, i32 0, i32 5
  store i8 1, ptr %29, align 8
  %30 = load ptr, ptr %6, align 8
  %31 = getelementptr inbounds %struct.CheckpointHeaderContents, ptr %30, i32 0, i32 11
  %32 = load double, ptr %31, align 8
  %33 = fptrunc double %32 to float
  %34 = load ptr, ptr %4, align 8
  %35 = getelementptr inbounds %struct.t_trxframe, ptr %34, i32 0, i32 6
  store float %33, ptr %35, align 4
  %36 = load ptr, ptr %4, align 8
  %37 = getelementptr inbounds %struct.t_trxframe, ptr %36, i32 0, i32 11
  store i8 0, ptr %37, align 4
  %38 = load ptr, ptr %4, align 8
  %39 = load ptr, ptr %5, align 8
  %40 = call noundef nonnull align 8 dereferenceable(32) ptr @_ZN3gmx19StatePropagatorData12checkpointIDB5cxx11Ev()
  %41 = call ptr @_ZNK3gmx24ReadCheckpointDataHolder14checkpointDataERKNSt7__cxx1112basic_stringIcSt11char_traitsIcESaIcEEE(ptr noundef nonnull align 8 dereferenceable(72) %39, ptr noundef nonnull align 8 dereferenceable(32) %40)
  %42 = getelementptr inbounds %"class.gmx::CheckpointData", ptr %8, i32 0, i32 0
  store ptr %41, ptr %42, align 8
  %43 = getelementptr inbounds %"class.gmx::CheckpointData", ptr %8, i32 0, i32 0
  %44 = load ptr, ptr %43, align 8
  call void @_ZN3gmx19StatePropagatorData24readCheckpointToTrxFrameEP10t_trxframeNS_14CheckpointDataILNS_23CheckpointDataOperationE0EEE(ptr noundef %38, ptr %44)
  %45 = load ptr, ptr %5, align 8
  %46 = call noundef nonnull align 8 dereferenceable(32) ptr @_ZN3gmx26FreeEnergyPerturbationData12checkpointIDB5cxx11Ev()
  %47 = call noundef zeroext i1 @_ZNK3gmx24ReadCheckpointDataHolder9keyExistsERKNSt7__cxx1112basic_stringIcSt11char_traitsIcESaIcEEE(ptr noundef nonnull align 8 dereferenceable(72) %45, ptr noundef nonnull align 8 dereferenceable(32) %46)
  br i1 %47, label %48, label %58

48:                                               ; preds = %18
  %49 = load ptr, ptr %4, align 8
  %50 = load ptr, ptr %5, align 8
  %51 = call noundef nonnull align 8 dereferenceable(32) ptr @_ZN3gmx26FreeEnergyPerturbationData12checkpointIDB5cxx11Ev()
  %52 = call ptr @_ZNK3gmx24ReadCheckpointDataHolder14checkpointDataERKNSt7__cxx1112basic_stringIcSt11char_traitsIcESaIcEEE(ptr noundef nonnull align 8 dereferenceable(72) %50, ptr noundef nonnull align 8 dereferenceable(32) %51)
  %53 = getelementptr inbounds %"class.gmx::CheckpointData", ptr %10, i32 0, i32 0
  store ptr %52, ptr %53, align 8
  call void @_ZNSt8optionalIN3gmx14CheckpointDataILNS0_23CheckpointDataOperationE0EEEEC2IS3_TnNSt9enable_ifIX7__and_vISt6__not_ISt7is_sameIS4_NSt9remove_cvINSt16remove_referenceIT_E4typeEE4typeEEES7_IS8_ISt10in_place_tSF_EESt16is_constructibleIS3_JSB_EESt14is_convertibleISB_S3_EEEbE4typeELb1EEEOSB_(ptr noundef nonnull align 8 dereferenceable(16) %9, ptr noundef nonnull align 8 dereferenceable(8) %10) #12
  %54 = getelementptr inbounds { ptr, i8 }, ptr %9, i32 0, i32 0
  %55 = load ptr, ptr %54, align 8
  %56 = getelementptr inbounds { ptr, i8 }, ptr %9, i32 0, i32 1
  %57 = load i8, ptr %56, align 8
  call void @_ZN3gmx26FreeEnergyPerturbationData24readCheckpointToTrxFrameEP10t_trxframeSt8optionalINS_14CheckpointDataILNS_23CheckpointDataOperationE0EEEE(ptr noundef %49, ptr %55, i8 %57)
  br label %64

58:                                               ; preds = %18
  %59 = load ptr, ptr %4, align 8
  call void @_ZNSt8optionalIN3gmx14CheckpointDataILNS0_23CheckpointDataOperationE0EEEEC2ESt9nullopt_t(ptr noundef nonnull align 8 dereferenceable(16) %11) #12
  %60 = getelementptr inbounds { ptr, i8 }, ptr %11, i32 0, i32 0
  %61 = load ptr, ptr %60, align 8
  %62 = getelementptr inbounds { ptr, i8 }, ptr %11, i32 0, i32 1
  %63 = load i8, ptr %62, align 8
  call void @_ZN3gmx26FreeEnergyPerturbationData24readCheckpointToTrxFrameEP10t_trxframeSt8optionalINS_14CheckpointDataILNS_23CheckpointDataOperationE0EEEE(ptr noundef %59, ptr %61, i8 %63)
  br label %64

64:                                               ; preds = %58, %48
  ret void
}