; Function Attrs: mustprogress uwtable
define void @_ZN3gmx16ModularSimulator24readCheckpointToTrxFrameEP10t_trxframePNS_24ReadCheckpointDataHolderERK24CheckpointHeaderContents(ptr noundef %0, ptr noundef %1, ptr nocapture noundef nonnull readonly align 8 dereferenceable(6249) %2) local_unnamed_addr #0 align 2 personality ptr @__gxx_personality_v0 {
  %4 = getelementptr inbounds i8, ptr %2, i64 6248
  %5 = load i8, ptr %4, align 8
  %6 = trunc i8 %5 to i1
  br i1 %6, label %8, label %7

7:                                                ; preds = %3
  tail call void @_ZN3gmx8internal13assertHandlerEPKcS2_S2_S2_i(ptr noundef nonnull @.str.56, ptr noundef nonnull @.str.57, ptr noundef nonnull @"__PRETTY_FUNCTION__._ZZN3gmx16ModularSimulator24readCheckpointToTrxFrameEP10t_trxframePNS_24ReadCheckpointDataHolderERK24CheckpointHeaderContentsENK3$_0clEv", ptr noundef nonnull @.str.14, i32 noundef 552) #18
  unreachable

8:                                                ; preds = %3
  %9 = getelementptr inbounds i8, ptr %0, i64 12
  store i8 1, ptr %9, align 4
  %10 = getelementptr inbounds i8, ptr %2, i64 6160
  %11 = load i64, ptr %10, align 8
  %12 = tail call noundef i32 @_Z12int64_to_intlPKc(i64 noundef %11, ptr noundef nonnull @.str.55)
  %13 = sext i32 %12 to i64
  %14 = getelementptr inbounds i8, ptr %0, i64 16
  store i64 %13, ptr %14, align 8
  %15 = getelementptr inbounds i8, ptr %0, i64 24
  store i8 1, ptr %15, align 8
  %16 = getelementptr inbounds i8, ptr %2, i64 6168
  %17 = load double, ptr %16, align 8
  %18 = fptrunc double %17 to float
  %19 = getelementptr inbounds i8, ptr %0, i64 28
  store float %18, ptr %19, align 4
  %20 = getelementptr inbounds i8, ptr %0, i64 44
  store i8 0, ptr %20, align 4
  %21 = tail call noundef nonnull align 8 dereferenceable(32) ptr @_ZN3gmx19StatePropagatorData12checkpointIDB5cxx11Ev()
  %22 = tail call ptr @_ZNK3gmx24ReadCheckpointDataHolder14checkpointDataERKNSt7__cxx1112basic_stringIcSt11char_traitsIcESaIcEEE(ptr noundef nonnull align 8 dereferenceable(72) %1, ptr noundef nonnull align 8 dereferenceable(32) %21)
  tail call void @_ZN3gmx19StatePropagatorData24readCheckpointToTrxFrameEP10t_trxframeNS_14CheckpointDataILNS_23CheckpointDataOperationE0EEE(ptr noundef %0, ptr %22)
  %23 = tail call noundef nonnull align 8 dereferenceable(32) ptr @_ZN3gmx26FreeEnergyPerturbationData12checkpointIDB5cxx11Ev()
  %24 = tail call noundef zeroext i1 @_ZNK3gmx24ReadCheckpointDataHolder9keyExistsERKNSt7__cxx1112basic_stringIcSt11char_traitsIcESaIcEEE(ptr noundef nonnull align 8 dereferenceable(72) %1, ptr noundef nonnull align 8 dereferenceable(32) %23)
  br i1 %24, label %25, label %28

25:                                               ; preds = %8
  %26 = tail call noundef nonnull align 8 dereferenceable(32) ptr @_ZN3gmx26FreeEnergyPerturbationData12checkpointIDB5cxx11Ev()
  %27 = tail call ptr @_ZNK3gmx24ReadCheckpointDataHolder14checkpointDataERKNSt7__cxx1112basic_stringIcSt11char_traitsIcESaIcEEE(ptr noundef nonnull align 8 dereferenceable(72) %1, ptr noundef nonnull align 8 dereferenceable(32) %26)
  tail call void @_ZN3gmx26FreeEnergyPerturbationData24readCheckpointToTrxFrameEP10t_trxframeSt8optionalINS_14CheckpointDataILNS_23CheckpointDataOperationE0EEEE(ptr noundef nonnull %0, ptr %27, i8 1)
  br label %29

28:                                               ; preds = %8
  tail call void @_ZN3gmx26FreeEnergyPerturbationData24readCheckpointToTrxFrameEP10t_trxframeSt8optionalINS_14CheckpointDataILNS_23CheckpointDataOperationE0EEEE(ptr noundef nonnull %0, ptr undef, i8 0)
  br label %29

29:                                               ; preds = %28, %25
  ret void
}